; Function Attrs: nounwind uwtable
define dso_local range(i32 0, 2) i32 @bsearch_midx(ptr noundef %0, ptr noundef readonly %1, ptr noundef %2) local_unnamed_addr #1 {
  %.not7 = icmp eq ptr %1, null
  br i1 %.not7, label %._crit_edge, label %.lr.ph

.lr.ph:                                           ; preds = %3
  %.not.i = icmp eq ptr %2, null
  br i1 %.not.i, label %bsearch_one_midx.exit.us, label %bsearch_one_midx.exit

bsearch_one_midx.exit.us:                         ; preds = %.lr.ph, %15
  %.058.us = phi ptr [ %17, %15 ], [ %1, %.lr.ph ]
  %4 = getelementptr inbounds nuw i8, ptr %.058.us, i64 112
  %5 = load ptr, ptr %4, align 8, !tbaa !67
  %6 = getelementptr inbounds nuw i8, ptr %.058.us, i64 120
  %7 = load ptr, ptr %6, align 8, !tbaa !4
  %8 = getelementptr inbounds nuw i8, ptr %.058.us, i64 200
  %9 = load ptr, ptr %8, align 8, !tbaa !11
  %10 = getelementptr inbounds nuw i8, ptr %9, i64 400
  %11 = load ptr, ptr %10, align 8, !tbaa !13
  %12 = getelementptr inbounds nuw i8, ptr %11, i64 16
  %13 = load i64, ptr %12, align 8, !tbaa !32
  %14 = tail call i32 @bsearch_hash(ptr noundef %0, ptr noundef %5, ptr noundef %7, i64 noundef %13, ptr noundef null) #22
  %.not6.us = icmp eq i32 %14, 0
  br i1 %.not6.us, label %15, label %._crit_edge

15:                                               ; preds = %bsearch_one_midx.exit.us
  %16 = getelementptr inbounds nuw i8, ptr %.058.us, i64 168
  %17 = load ptr, ptr %16, align 8, !tbaa !44
  %.not.us = icmp eq ptr %17, null
  br i1 %.not.us, label %._crit_edge, label %bsearch_one_midx.exit.us, !llvm.loop !75

bsearch_one_midx.exit:                            ; preds = %.lr.ph, %33
  %.058 = phi ptr [ %35, %33 ], [ %1, %.lr.ph ]
  %18 = getelementptr inbounds nuw i8, ptr %.058, i64 112
  %19 = load ptr, ptr %18, align 8, !tbaa !67
  %20 = getelementptr inbounds nuw i8, ptr %.058, i64 120
  %21 = load ptr, ptr %20, align 8, !tbaa !4
  %22 = getelementptr inbounds nuw i8, ptr %.058, i64 200
  %23 = load ptr, ptr %22, align 8, !tbaa !11
  %24 = getelementptr inbounds nuw i8, ptr %23, i64 400
  %25 = load ptr, ptr %24, align 8, !tbaa !13
  %26 = getelementptr inbounds nuw i8, ptr %25, i64 16
  %27 = load i64, ptr %26, align 8, !tbaa !32
  %28 = tail call i32 @bsearch_hash(ptr noundef %0, ptr noundef %19, ptr noundef %21, i64 noundef %27, ptr noundef nonnull %2) #22
  %29 = getelementptr inbounds nuw i8, ptr %.058, i64 176
  %30 = load i32, ptr %29, align 8, !tbaa !41
  %31 = load i32, ptr %2, align 4, !tbaa !41
  %32 = add i32 %31, %30
  store i32 %32, ptr %2, align 4, !tbaa !41
  %.not6 = icmp eq i32 %28, 0
  br i1 %.not6, label %33, label %._crit_edge

33:                                               ; preds = %bsearch_one_midx.exit
  %34 = getelementptr inbounds nuw i8, ptr %.058, i64 168
  %35 = load ptr, ptr %34, align 8, !tbaa !44
  %.not = icmp eq ptr %35, null
  br i1 %.not, label %._crit_edge, label %bsearch_one_midx.exit, !llvm.loop !75

._crit_edge:                                      ; preds = %bsearch_one_midx.exit, %33, %bsearch_one_midx.exit.us, %15, %3
  %.0 = phi i32 [ 0, %3 ], [ 0, %15 ], [ 1, %bsearch_one_midx.exit.us ], [ 0, %33 ], [ 1, %bsearch_one_midx.exit ]
  ret i32 %.0
}